target datalayout = "e-m:e-p270:32:32-p271:32:32-p272:64:64-i64:64-i128:128-f80:128-n8:16:32:64-S128"
target triple = "x86_64-pc-linux-gnu"

@.str = private unnamed_addr constant [34 x i8] c"../openssl/test/servername_test.c\00", align 1
@.str.5 = private unnamed_addr constant [4 x i8] c"ctx\00", align 1
@maxversion = internal global i32 0, align 4
@.str.6 = private unnamed_addr constant [47 x i8] c"SSL_CTX_set_max_proto_version(ctx, maxversion)\00", align 1
@.str.7 = private unnamed_addr constant [4 x i8] c"con\00", align 1
@host = internal global ptr @.str.15, align 8
@.str.8 = private unnamed_addr constant [5 x i8] c"rbio\00", align 1
@.str.9 = private unnamed_addr constant [5 x i8] c"wbio\00", align 1
@.str.10 = private unnamed_addr constant [17 x i8] c"SSL_connect(con)\00", align 1
@.str.11 = private unnamed_addr constant [2 x i8] c"0\00", align 1
@.str.12 = private unnamed_addr constant [43 x i8] c"get_sni_from_client_hello(wbio, &hostname)\00", align 1
@.str.13 = private unnamed_addr constant [9 x i8] c"hostname\00", align 1
@.str.14 = private unnamed_addr constant [5 x i8] c"host\00", align 1

; Function Attrs: nounwind uwtable
define internal i32 @client_setup_sni_after_state() #0 {
  %1 = alloca ptr, align 8
  %2 = alloca ptr, align 8
  %3 = alloca ptr, align 8
  %4 = alloca ptr, align 8
  %5 = alloca ptr, align 8
  %6 = alloca i32, align 4
  call void @llvm.lifetime.start.p0(i64 8, ptr %1) #7
  call void @llvm.lifetime.start.p0(i64 8, ptr %2) #7
  store ptr null, ptr %2, align 8, !tbaa !12
  call void @llvm.lifetime.start.p0(i64 8, ptr %3) #7
  call void @llvm.lifetime.start.p0(i64 8, ptr %4) #7
  call void @llvm.lifetime.start.p0(i64 8, ptr %5) #7
  store ptr null, ptr %5, align 8, !tbaa !4
  call void @llvm.lifetime.start.p0(i64 4, ptr %6) #7
  store i32 0, ptr %6, align 4, !tbaa !9
  %7 = call ptr @TLS_method()
  %8 = call ptr @SSL_CTX_new(ptr noundef %7)
  store ptr %8, ptr %1, align 8, !tbaa !14
  %9 = load ptr, ptr %1, align 8, !tbaa !14
  %10 = call i32 @test_ptr(ptr noundef @.str, i32 noundef 160, ptr noundef @.str.5, ptr noundef %9)
  %11 = icmp ne i32 %10, 0
  br i1 %11, label %13, label %12

12:                                               ; preds = %0
  br label %78

13:                                               ; preds = %0
  %14 = load i32, ptr @maxversion, align 4, !tbaa !9
  %15 = icmp sgt i32 %14, 0
  br i1 %15, label %16, label %26

16:                                               ; preds = %13
  %17 = load ptr, ptr %1, align 8, !tbaa !14
  %18 = load i32, ptr @maxversion, align 4, !tbaa !9
  %19 = sext i32 %18 to i64
  %20 = call i64 @SSL_CTX_ctrl(ptr noundef %17, i32 noundef 124, i64 noundef %19, ptr noundef null)
  %21 = icmp ne i64 %20, 0
  %22 = zext i1 %21 to i32
  %23 = call i32 @test_true(ptr noundef @.str, i32 noundef 164, ptr noundef @.str.6, i32 noundef %22)
  %24 = icmp ne i32 %23, 0
  br i1 %24, label %26, label %25

25:                                               ; preds = %16
  br label %78

26:                                               ; preds = %16, %13
  %27 = load ptr, ptr %1, align 8, !tbaa !14
  %28 = call ptr @SSL_new(ptr noundef %27)
  store ptr %28, ptr %2, align 8, !tbaa !12
  %29 = load ptr, ptr %2, align 8, !tbaa !12
  %30 = call i32 @test_ptr(ptr noundef @.str, i32 noundef 168, ptr noundef @.str.7, ptr noundef %29)
  %31 = icmp ne i32 %30, 0
  br i1 %31, label %33, label %32

32:                                               ; preds = %26
  br label %78

33:                                               ; preds = %26
  %34 = call ptr @BIO_s_mem()
  %35 = call ptr @BIO_new(ptr noundef %34)
  store ptr %35, ptr %3, align 8, !tbaa !16
  %36 = call ptr @BIO_s_mem()
  %37 = call ptr @BIO_new(ptr noundef %36)
  store ptr %37, ptr %4, align 8, !tbaa !16
  %38 = load ptr, ptr %3, align 8, !tbaa !16
  %39 = call i32 @test_ptr(ptr noundef @.str, i32 noundef 173, ptr noundef @.str.8, ptr noundef %38)
  %40 = icmp ne i32 %39, 0
  br i1 %40, label %41, label %45

41:                                               ; preds = %33
  %42 = load ptr, ptr %4, align 8, !tbaa !16
  %43 = call i32 @test_ptr(ptr noundef @.str, i32 noundef 173, ptr noundef @.str.9, ptr noundef %42)
  %44 = icmp ne i32 %43, 0
  br i1 %44, label %50, label %45

45:                                               ; preds = %41, %33
  %46 = load ptr, ptr %3, align 8, !tbaa !16
  %47 = call i32 @BIO_free(ptr noundef %46)
  %48 = load ptr, ptr %4, align 8, !tbaa !16
  %49 = call i32 @BIO_free(ptr noundef %48)
  br label %78

50:                                               ; preds = %41
  %51 = load ptr, ptr %2, align 8, !tbaa !12
  %52 = load ptr, ptr %3, align 8, !tbaa !16
  %53 = load ptr, ptr %4, align 8, !tbaa !16
  call void @SSL_set_bio(ptr noundef %51, ptr noundef %52, ptr noundef %53)
  %54 = load ptr, ptr %2, align 8, !tbaa !12
  call void @SSL_set_connect_state(ptr noundef %54)
  %55 = load ptr, ptr %2, align 8, !tbaa !12
  %56 = load ptr, ptr @host, align 8, !tbaa !4
  %57 = call i64 @SSL_ctrl(ptr noundef %55, i32 noundef 55, i64 noundef 0, ptr noundef %56)
  %58 = load ptr, ptr %2, align 8, !tbaa !12
  %59 = call i32 @SSL_connect(ptr noundef %58)
  %60 = call i32 @test_int_le(ptr noundef @.str, i32 noundef 185, ptr noundef @.str.10, ptr noundef @.str.11, i32 noundef %59, i32 noundef 0)
  %61 = icmp ne i32 %60, 0
  br i1 %61, label %63, label %62

62:                                               ; preds = %50
  br label %78

63:                                               ; preds = %50
  %64 = load ptr, ptr %4, align 8, !tbaa !16
  %65 = call i32 @get_sni_from_client_hello(ptr noundef %64, ptr noundef %5)
  %66 = icmp ne i32 %65, 0
  %67 = zext i1 %66 to i32
  %68 = call i32 @test_true(ptr noundef @.str, i32 noundef 188, ptr noundef @.str.12, i32 noundef %67)
  %69 = icmp ne i32 %68, 0
  br i1 %69, label %71, label %70

70:                                               ; preds = %63
  br label %78

71:                                               ; preds = %63
  %72 = load ptr, ptr %5, align 8, !tbaa !4
  %73 = load ptr, ptr @host, align 8, !tbaa !4
  %74 = call i32 @test_str_eq(ptr noundef @.str, i32 noundef 191, ptr noundef @.str.13, ptr noundef @.str.14, ptr noundef %72, ptr noundef %73)
  %75 = icmp ne i32 %74, 0
  br i1 %75, label %77, label %76

76:                                               ; preds = %71
  br label %78

77:                                               ; preds = %71
  store i32 1, ptr %6, align 4, !tbaa !9
  br label %78

78:                                               ; preds = %77, %76, %70, %62, %45, %32, %25, %12
  %79 = load ptr, ptr %5, align 8, !tbaa !4
  call void @CRYPTO_free(ptr noundef %79, ptr noundef @.str, i32 noundef 196)
  %80 = load ptr, ptr %2, align 8, !tbaa !12
  call void @SSL_free(ptr noundef %80)
  %81 = load ptr, ptr %1, align 8, !tbaa !14
  call void @SSL_CTX_free(ptr noundef %81)
  %82 = load i32, ptr %6, align 4, !tbaa !9
  call void @llvm.lifetime.end.p0(i64 4, ptr %6) #7
  call void @llvm.lifetime.end.p0(i64 8, ptr %5) #7
  call void @llvm.lifetime.end.p0(i64 8, ptr %4) #7
  call void @llvm.lifetime.end.p0(i64 8, ptr %3) #7
  call void @llvm.lifetime.end.p0(i64 8, ptr %2) #7
  call void @llvm.lifetime.end.p0(i64 8, ptr %1) #7
  ret i32 %82
}