; Function Attrs: nounwind uwtable
define internal range(i32 0, 2) i32 @client_setup_sni_after_state() #0 {
  %1 = alloca ptr, align 8
  call void @llvm.lifetime.start.p0(i64 8, ptr nonnull %1) #5
  store ptr null, ptr %1, align 8, !tbaa !4
  %2 = tail call ptr @TLS_method() #5
  %3 = tail call ptr @SSL_CTX_new(ptr noundef %2) #5
  %4 = tail call i32 @test_ptr(ptr noundef nonnull @.str, i32 noundef 160, ptr noundef nonnull @.str.5, ptr noundef %3) #5
  %.not = icmp eq i32 %4, 0
  br i1 %.not, label %28, label %5

5:                                                ; preds = %0
  %6 = tail call ptr @SSL_new(ptr noundef %3) #5
  %7 = tail call i32 @test_ptr(ptr noundef nonnull @.str, i32 noundef 168, ptr noundef nonnull @.str.7, ptr noundef %6) #5
  %.not19 = icmp eq i32 %7, 0
  br i1 %.not19, label %28, label %8

8:                                                ; preds = %5
  %9 = tail call ptr @BIO_s_mem() #5
  %10 = tail call ptr @BIO_new(ptr noundef %9) #5
  %11 = tail call ptr @BIO_s_mem() #5
  %12 = tail call ptr @BIO_new(ptr noundef %11) #5
  %13 = tail call i32 @test_ptr(ptr noundef nonnull @.str, i32 noundef 173, ptr noundef nonnull @.str.8, ptr noundef %10) #5
  %.not20 = icmp eq i32 %13, 0
  br i1 %.not20, label %16, label %14

14:                                               ; preds = %8
  %15 = tail call i32 @test_ptr(ptr noundef nonnull @.str, i32 noundef 173, ptr noundef nonnull @.str.9, ptr noundef %12) #5
  %.not21 = icmp eq i32 %15, 0
  br i1 %.not21, label %16, label %19

16:                                               ; preds = %14, %8
  %17 = tail call i32 @BIO_free(ptr noundef %10) #5
  %18 = tail call i32 @BIO_free(ptr noundef %12) #5
  br label %28

19:                                               ; preds = %14
  tail call void @SSL_set_bio(ptr noundef %6, ptr noundef %10, ptr noundef %12) #5
  tail call void @SSL_set_connect_state(ptr noundef %6) #5
  %20 = tail call i64 @SSL_ctrl(ptr noundef %6, i32 noundef 55, i64 noundef 0, ptr noundef nonnull @.str.15) #5
  %21 = tail call i32 @SSL_connect(ptr noundef %6) #5
  %22 = tail call i32 @test_int_le(ptr noundef nonnull @.str, i32 noundef 185, ptr noundef nonnull @.str.10, ptr noundef nonnull @.str.11, i32 noundef %21, i32 noundef 0) #5
  %.not22 = icmp eq i32 %22, 0
  br i1 %.not22, label %28, label %23

23:                                               ; preds = %19
  %24 = call fastcc i32 @get_sni_from_client_hello(ptr noundef %12, ptr noundef %1)
  %25 = tail call i32 @test_true(ptr noundef nonnull @.str, i32 noundef 188, ptr noundef nonnull @.str.12, i32 noundef %24) #5
  %.not23 = icmp eq i32 %25, 0
  %.pre = load ptr, ptr %1, align 8, !tbaa !4
  br i1 %.not23, label %28, label %26

26:                                               ; preds = %23
  %27 = tail call i32 @test_str_eq(ptr noundef nonnull @.str, i32 noundef 191, ptr noundef nonnull @.str.13, ptr noundef nonnull @.str.14, ptr noundef %.pre, ptr noundef nonnull @.str.15) #5
  %.not24 = icmp ne i32 %27, 0
  %spec.select = zext i1 %.not24 to i32
  br label %28

28:                                               ; preds = %26, %23, %19, %5, %0, %16
  %29 = phi ptr [ %.pre, %23 ], [ null, %19 ], [ null, %16 ], [ null, %5 ], [ null, %0 ], [ %.pre, %26 ]
  %.017 = phi ptr [ %6, %23 ], [ %6, %19 ], [ %6, %16 ], [ %6, %5 ], [ null, %0 ], [ %6, %26 ]
  %.0 = phi i32 [ 0, %23 ], [ 0, %19 ], [ 0, %16 ], [ 0, %5 ], [ 0, %0 ], [ %spec.select, %26 ]
  tail call void @CRYPTO_free(ptr noundef %29, ptr noundef nonnull @.str, i32 noundef 196) #5
  tail call void @SSL_free(ptr noundef %.017) #5
  tail call void @SSL_CTX_free(ptr noundef %3) #5
  call void @llvm.lifetime.end.p0(i64 8, ptr nonnull %1) #5
  ret i32 %.0
}